; Function Attrs: mustprogress uwtable
define noundef i32 @_ZNK6casadi10HorzRepmat10sp_reverseEPPyS2_PxS1_(ptr noundef nonnull align 8 dereferenceable(72) %0, ptr noundef readonly captures(none) %1, ptr noundef readonly captures(none) %2, ptr readnone captures(none) %3, ptr readnone captures(none) %4) unnamed_addr #3 align 2 {
  %6 = getelementptr inbounds nuw i8, ptr %0, i64 32
  %7 = getelementptr inbounds nuw i8, ptr %0, i64 40
  %8 = load ptr, ptr %7, align 8, !tbaa !50
  %9 = load ptr, ptr %6, align 8, !tbaa !51
  %.not.i.i.i.not = icmp eq ptr %8, %9
  br i1 %.not.i.i.i.not, label %10, label %_ZNK6casadi6MXNode3depEx.exit

10:                                               ; preds = %5
  tail call void (ptr, ...) @_ZSt24__throw_out_of_range_fmtPKcz(ptr noundef nonnull @.str.29, i64 noundef 0, i64 noundef 0) #23
  unreachable

_ZNK6casadi6MXNode3depEx.exit:                    ; preds = %5
  %11 = tail call noundef nonnull align 8 dereferenceable(8) ptr @_ZNK6casadi2MX8sparsityEv(ptr noundef nonnull align 8 dereferenceable(8) %9)
  %12 = tail call noundef i64 @_ZNK6casadi8Sparsity3nnzEv(ptr noundef nonnull align 8 dereferenceable(8) %11)
  %13 = getelementptr inbounds nuw i8, ptr %0, i64 56
  %14 = tail call noundef i64 @_ZNK6casadi8Sparsity3nnzEv(ptr noundef nonnull align 8 dereferenceable(8) %13)
  %15 = getelementptr inbounds nuw i8, ptr %0, i64 64
  %16 = load i64, ptr %15, align 8, !tbaa !6
  %17 = icmp sgt i64 %16, 0
  %.pre = load ptr, ptr %2, align 8, !tbaa !60
  br i1 %17, label %.lr.ph, label %._crit_edge

.lr.ph:                                           ; preds = %_ZNK6casadi6MXNode3depEx.exit
  %18 = load ptr, ptr %1, align 8, !tbaa !60
  %.not12.i = icmp eq i64 %12, 0
  br i1 %.not12.i, label %._crit_edge, label %.lr.ph.i.preheader

._crit_edge:                                      ; preds = %_ZSt9transformIPyS0_S0_PFyyyEET1_T_S4_T0_S3_T2_.exit.loopexit, %.lr.ph, %_ZNK6casadi6MXNode3depEx.exit
  %.not5.i.i.i = icmp eq i64 %14, 0
  br i1 %.not5.i.i.i, label %_ZSt4fillIPyiEvT_S1_RKT0_.exit, label %.lr.ph.i.i.i.preheader

.lr.ph.i.i.i.preheader:                           ; preds = %._crit_edge
  %19 = shl i64 %14, 3
  tail call void @llvm.memset.p0.i64(ptr align 8 %.pre, i8 0, i64 %19, i1 false), !tbaa !63
  br label %_ZSt4fillIPyiEvT_S1_RKT0_.exit

_ZSt4fillIPyiEvT_S1_RKT0_.exit:                   ; preds = %.lr.ph.i.i.i.preheader, %._crit_edge
  ret i32 0

.lr.ph.i.preheader:                               ; preds = %.lr.ph, %_ZSt9transformIPyS0_S0_PFyyyEET1_T_S4_T0_S3_T2_.exit.loopexit
  %.014 = phi i64 [ %22, %_ZSt9transformIPyS0_S0_PFyyyEET1_T_S4_T0_S3_T2_.exit.loopexit ], [ 0, %.lr.ph ]
  %20 = mul nsw i64 %.014, %12
  %21 = getelementptr inbounds i64, ptr %.pre, i64 %20
  %22 = add nuw nsw i64 %.014, 1
  %23 = mul nsw i64 %22, %12
  %24 = getelementptr inbounds i64, ptr %.pre, i64 %23
  br label %.lr.ph.i

.lr.ph.i:                                         ; preds = %.lr.ph.i.preheader, %.lr.ph.i
  %.015.i = phi ptr [ %28, %.lr.ph.i ], [ %21, %.lr.ph.i.preheader ]
  %.01014.i = phi ptr [ %29, %.lr.ph.i ], [ %18, %.lr.ph.i.preheader ]
  %25 = load i64, ptr %.015.i, align 8, !tbaa !63
  %26 = load i64, ptr %.01014.i, align 8, !tbaa !63
  %27 = or i64 %26, %25
  store i64 %27, ptr %.01014.i, align 8, !tbaa !63
  %28 = getelementptr inbounds nuw i8, ptr %.015.i, i64 8
  %29 = getelementptr i8, ptr %.01014.i, i64 8
  %.not.i = icmp eq ptr %28, %24
  br i1 %.not.i, label %_ZSt9transformIPyS0_S0_PFyyyEET1_T_S4_T0_S3_T2_.exit.loopexit, label %.lr.ph.i, !llvm.loop !64

_ZSt9transformIPyS0_S0_PFyyyEET1_T_S4_T0_S3_T2_.exit.loopexit: ; preds = %.lr.ph.i
  %30 = load i64, ptr %15, align 8, !tbaa !6
  %31 = icmp slt i64 %22, %30
  br i1 %31, label %.lr.ph.i.preheader, label %._crit_edge, !llvm.loop !65
}